; Function Attrs: mustprogress nofree norecurse nosync nounwind willreturn memory(read, inaccessiblemem: none) uwtable
define noundef i32 @_ZNK2cv8Subdiv2D8nextEdgeEi(ptr noundef nonnull readonly align 8 captures(none) dereferenceable(80) %0, i32 noundef %1) local_unnamed_addr #0 align 2 {
  %3 = getelementptr inbounds nuw i8, ptr %0, i64 24
  %4 = ashr i32 %1, 2
  %5 = sext i32 %4 to i64
  %6 = load ptr, ptr %3, align 8, !tbaa !3
  %7 = getelementptr inbounds nuw %"struct.cv::Subdiv2D::QuadEdge", ptr %6, i64 %5
  %8 = and i32 %1, 3
  %9 = zext nneg i32 %8 to i64
  %10 = getelementptr inbounds nuw [4 x i32], ptr %7, i64 0, i64 %9
  %11 = load i32, ptr %10, align 4, !tbaa !9
  ret i32 %11
}